target datalayout = "e-m:e-p270:32:32-p271:32:32-p272:64:64-i64:64-i128:128-f80:128-n8:16:32:64-S128"
target triple = "x86_64-pc-linux-gnu"

%struct.http2_session_data = type { %struct.http2_stream_data, ptr, ptr, ptr, ptr }
%struct.http2_stream_data = type { ptr, ptr, ptr, i32, i32 }
%struct.nghttp2_frame_hd = type { i64, i32, i8, i8, i8 }
%struct.nghttp2_headers = type { %struct.nghttp2_frame_hd, i64, %struct.nghttp2_priority_spec, ptr, i64, i32 }
%struct.nghttp2_priority_spec = type { i32, i32, i8 }

; Function Attrs: nounwind uwtable
define internal void @add_stream(ptr noundef %0, ptr noundef %1) #0 {
  %3 = alloca ptr, align 8
  %4 = alloca ptr, align 8
  store ptr %0, ptr %3, align 8, !tbaa !44
  store ptr %1, ptr %4, align 8, !tbaa !63
  %5 = load ptr, ptr %3, align 8, !tbaa !44
  %6 = getelementptr inbounds nuw %struct.http2_session_data, ptr %5, i32 0, i32 0
  %7 = getelementptr inbounds nuw %struct.http2_stream_data, ptr %6, i32 0, i32 1
  %8 = load ptr, ptr %7, align 8, !tbaa !62
  %9 = load ptr, ptr %4, align 8, !tbaa !63
  %10 = getelementptr inbounds nuw %struct.http2_stream_data, ptr %9, i32 0, i32 1
  store ptr %8, ptr %10, align 8, !tbaa !64
  %11 = load ptr, ptr %4, align 8, !tbaa !63
  %12 = load ptr, ptr %3, align 8, !tbaa !44
  %13 = getelementptr inbounds nuw %struct.http2_session_data, ptr %12, i32 0, i32 0
  %14 = getelementptr inbounds nuw %struct.http2_stream_data, ptr %13, i32 0, i32 1
  store ptr %11, ptr %14, align 8, !tbaa !62
  %15 = load ptr, ptr %3, align 8, !tbaa !44
  %16 = getelementptr inbounds nuw %struct.http2_session_data, ptr %15, i32 0, i32 0
  %17 = load ptr, ptr %4, align 8, !tbaa !63
  %18 = getelementptr inbounds nuw %struct.http2_stream_data, ptr %17, i32 0, i32 0
  store ptr %16, ptr %18, align 8, !tbaa !79
  %19 = load ptr, ptr %4, align 8, !tbaa !63
  %20 = getelementptr inbounds nuw %struct.http2_stream_data, ptr %19, i32 0, i32 1
  %21 = load ptr, ptr %20, align 8, !tbaa !64
  %22 = icmp ne ptr %21, null
  br i1 %22, label %23, label %29

23:                                               ; preds = %2
  %24 = load ptr, ptr %4, align 8, !tbaa !63
  %25 = load ptr, ptr %4, align 8, !tbaa !63
  %26 = getelementptr inbounds nuw %struct.http2_stream_data, ptr %25, i32 0, i32 1
  %27 = load ptr, ptr %26, align 8, !tbaa !64
  %28 = getelementptr inbounds nuw %struct.http2_stream_data, ptr %27, i32 0, i32 0
  store ptr %24, ptr %28, align 8, !tbaa !79
  br label %29

29:                                               ; preds = %23, %2
  ret void
}

; Function Attrs: nounwind uwtable
define internal ptr @create_http2_stream_data(ptr noundef %0, i32 noundef %1) #0 {
  %3 = alloca ptr, align 8
  %4 = alloca i32, align 4
  %5 = alloca ptr, align 8
  store ptr %0, ptr %3, align 8, !tbaa !44
  store i32 %1, ptr %4, align 4, !tbaa !4
  call void @llvm.lifetime.start.p0(i64 8, ptr %5) #11
  %6 = call noalias ptr @malloc(i64 noundef 32) #14
  store ptr %6, ptr %5, align 8, !tbaa !63
  %7 = load ptr, ptr %5, align 8, !tbaa !63
  call void @llvm.memset.p0.i64(ptr align 8 %7, i8 0, i64 32, i1 false)
  %8 = load i32, ptr %4, align 4, !tbaa !4
  %9 = load ptr, ptr %5, align 8, !tbaa !63
  %10 = getelementptr inbounds nuw %struct.http2_stream_data, ptr %9, i32 0, i32 3
  store i32 %8, ptr %10, align 8, !tbaa !73
  %11 = load ptr, ptr %5, align 8, !tbaa !63
  %12 = getelementptr inbounds nuw %struct.http2_stream_data, ptr %11, i32 0, i32 4
  store i32 -1, ptr %12, align 4, !tbaa !66
  %13 = load ptr, ptr %3, align 8, !tbaa !44
  %14 = load ptr, ptr %5, align 8, !tbaa !63
  call void @add_stream(ptr noundef %13, ptr noundef %14)
  %15 = load ptr, ptr %5, align 8, !tbaa !63
  call void @llvm.lifetime.end.p0(i64 8, ptr %5) #11
  ret ptr %15
}

; Function Attrs: nounwind uwtable
define internal i32 @on_begin_headers_callback(ptr noundef %0, ptr noundef %1, ptr noundef %2) #0 {
  %4 = alloca i32, align 4
  %5 = alloca ptr, align 8
  %6 = alloca ptr, align 8
  %7 = alloca ptr, align 8
  %8 = alloca ptr, align 8
  %9 = alloca ptr, align 8
  %10 = alloca i32, align 4
  store ptr %0, ptr %5, align 8, !tbaa !70
  store ptr %1, ptr %6, align 8, !tbaa !42
  store ptr %2, ptr %7, align 8, !tbaa !42
  call void @llvm.lifetime.start.p0(i64 8, ptr %8) #11
  %11 = load ptr, ptr %7, align 8, !tbaa !42
  store ptr %11, ptr %8, align 8, !tbaa !44
  call void @llvm.lifetime.start.p0(i64 8, ptr %9) #11
  %12 = load ptr, ptr %6, align 8, !tbaa !42
  %13 = getelementptr inbounds nuw %struct.nghttp2_frame_hd, ptr %12, i32 0, i32 2
  %14 = load i8, ptr %13, align 4, !tbaa !14
  %15 = zext i8 %14 to i32
  %16 = icmp ne i32 %15, 1
  br i1 %16, label %22, label %17

17:                                               ; preds = %3
  %18 = load ptr, ptr %6, align 8, !tbaa !42
  %19 = getelementptr inbounds nuw %struct.nghttp2_headers, ptr %18, i32 0, i32 5
  %20 = load i32, ptr %19, align 8, !tbaa !14
  %21 = icmp ne i32 %20, 0
  br i1 %21, label %22, label %23

22:                                               ; preds = %17, %3
  store i32 0, ptr %4, align 4
  store i32 1, ptr %10, align 4
  br label %35

23:                                               ; preds = %17
  %24 = load ptr, ptr %8, align 8, !tbaa !44
  %25 = load ptr, ptr %6, align 8, !tbaa !42
  %26 = getelementptr inbounds nuw %struct.nghttp2_frame_hd, ptr %25, i32 0, i32 1
  %27 = load i32, ptr %26, align 8, !tbaa !14
  %28 = call ptr @create_http2_stream_data(ptr noundef %24, i32 noundef %27)
  store ptr %28, ptr %9, align 8, !tbaa !63
  %29 = load ptr, ptr %5, align 8, !tbaa !70
  %30 = load ptr, ptr %6, align 8, !tbaa !42
  %31 = getelementptr inbounds nuw %struct.nghttp2_frame_hd, ptr %30, i32 0, i32 1
  %32 = load i32, ptr %31, align 8, !tbaa !14
  %33 = load ptr, ptr %9, align 8, !tbaa !63
  %34 = call i32 @nghttp2_session_set_stream_user_data(ptr noundef %29, i32 noundef %32, ptr noundef %33)
  store i32 0, ptr %4, align 4
  store i32 1, ptr %10, align 4
  br label %35

35:                                               ; preds = %23, %22
  call void @llvm.lifetime.end.p0(i64 8, ptr %9) #11
  call void @llvm.lifetime.end.p0(i64 8, ptr %8) #11
  %36 = load i32, ptr %4, align 4
  ret i32 %36
}