; Function Attrs: nounwind uwtable
define internal noundef i32 @on_begin_headers_callback(ptr noundef %0, ptr noundef readonly captures(none) %1, ptr noundef %2) #0 {
  %4 = getelementptr inbounds nuw i8, ptr %1, i64 12
  %5 = load i8, ptr %4, align 4, !tbaa !9
  %.not = icmp eq i8 %5, 1
  br i1 %.not, label %6, label %20

6:                                                ; preds = %3
  %7 = getelementptr inbounds nuw i8, ptr %1, i64 56
  %8 = load i32, ptr %7, align 8, !tbaa !9
  %.not8 = icmp eq i32 %8, 0
  br i1 %.not8, label %9, label %20

9:                                                ; preds = %6
  %10 = getelementptr inbounds nuw i8, ptr %1, i64 8
  %11 = load i32, ptr %10, align 8, !tbaa !9
  %calloc.i = tail call dereferenceable_or_null(32) ptr @calloc(i64 1, i64 32)
  %12 = getelementptr inbounds nuw i8, ptr %calloc.i, i64 24
  store i32 %11, ptr %12, align 8, !tbaa !47
  %13 = getelementptr inbounds nuw i8, ptr %calloc.i, i64 28
  store i32 -1, ptr %13, align 4, !tbaa !43
  %14 = getelementptr inbounds nuw i8, ptr %2, i64 8
  %15 = load ptr, ptr %14, align 8, !tbaa !41
  %16 = getelementptr inbounds nuw i8, ptr %calloc.i, i64 8
  store ptr %15, ptr %16, align 8, !tbaa !42
  store ptr %calloc.i, ptr %14, align 8, !tbaa !41
  store ptr %2, ptr %calloc.i, align 8, !tbaa !50
  %.not.i.i = icmp eq ptr %15, null
  br i1 %.not.i.i, label %create_http2_stream_data.exit, label %17

17:                                               ; preds = %9
  store ptr %calloc.i, ptr %15, align 8, !tbaa !50
  br label %create_http2_stream_data.exit

create_http2_stream_data.exit:                    ; preds = %9, %17
  %18 = load i32, ptr %10, align 8, !tbaa !9
  %19 = tail call i32 @nghttp2_session_set_stream_user_data(ptr noundef %0, i32 noundef %18, ptr noundef nonnull %calloc.i) #21
  br label %20

20:                                               ; preds = %3, %6, %create_http2_stream_data.exit
  ret i32 0
}